
solver_sample:     file format elf64-x86-64


Disassembly of section .init:

0000000000001000 <_init>:
    1000:	f3 0f 1e fa          	endbr64 
    1004:	48 83 ec 08          	sub    rsp,0x8
    1008:	48 8b 05 d9 2f 00 00 	mov    rax,QWORD PTR [rip+0x2fd9]        # 3fe8 <__gmon_start__@Base>
    100f:	48 85 c0             	test   rax,rax
    1012:	74 02                	je     1016 <_init+0x16>
    1014:	ff d0                	call   rax
    1016:	48 83 c4 08          	add    rsp,0x8
    101a:	c3                   	ret    

Disassembly of section .plt:

0000000000001020 <.plt>:
    1020:	ff 35 8a 2f 00 00    	push   QWORD PTR [rip+0x2f8a]        # 3fb0 <_GLOBAL_OFFSET_TABLE_+0x8>
    1026:	f2 ff 25 8b 2f 00 00 	bnd jmp QWORD PTR [rip+0x2f8b]        # 3fb8 <_GLOBAL_OFFSET_TABLE_+0x10>
    102d:	0f 1f 00             	nop    DWORD PTR [rax]
    1030:	f3 0f 1e fa          	endbr64 
    1034:	68 00 00 00 00       	push   0x0
    1039:	f2 e9 e1 ff ff ff    	bnd jmp 1020 <_init+0x20>
    103f:	90                   	nop
    1040:	f3 0f 1e fa          	endbr64 
    1044:	68 01 00 00 00       	push   0x1
    1049:	f2 e9 d1 ff ff ff    	bnd jmp 1020 <_init+0x20>
    104f:	90                   	nop

Disassembly of section .plt.got:

0000000000001050 <printf@plt>:
    1050:	f3 0f 1e fa          	endbr64 
    1054:	f2 ff 25 85 2f 00 00 	bnd jmp QWORD PTR [rip+0x2f85]        # 3fe0 <printf@GLIBC_2.2.5>
    105b:	0f 1f 44 00 00       	nop    DWORD PTR [rax+rax*1+0x0]

0000000000001060 <__cxa_finalize@plt>:
    1060:	f3 0f 1e fa          	endbr64 
    1064:	f2 ff 25 8d 2f 00 00 	bnd jmp QWORD PTR [rip+0x2f8d]        # 3ff8 <__cxa_finalize@GLIBC_2.2.5>
    106b:	0f 1f 44 00 00       	nop    DWORD PTR [rax+rax*1+0x0]

Disassembly of section .plt.sec:

0000000000001070 <__stack_chk_fail@plt>:
    1070:	f3 0f 1e fa          	endbr64 
    1074:	f2 ff 25 45 2f 00 00 	bnd jmp QWORD PTR [rip+0x2f45]        # 3fc0 <__stack_chk_fail@GLIBC_2.4>
    107b:	0f 1f 44 00 00       	nop    DWORD PTR [rax+rax*1+0x0]

0000000000001080 <fflush@plt>:
    1080:	f3 0f 1e fa          	endbr64 
    1084:	f2 ff 25 3d 2f 00 00 	bnd jmp QWORD PTR [rip+0x2f3d]        # 3fc8 <fflush@GLIBC_2.2.5>
    108b:	0f 1f 44 00 00       	nop    DWORD PTR [rax+rax*1+0x0]

Disassembly of section .text:

0000000000001090 <_start>:
    1090:	f3 0f 1e fa          	endbr64 
    1094:	31 ed                	xor    ebp,ebp
    1096:	49 89 d1             	mov    r9,rdx
    1099:	5e                   	pop    rsi
    109a:	48 89 e2             	mov    rdx,rsp
    109d:	48 83 e4 f0          	and    rsp,0xfffffffffffffff0
    10a1:	50                   	push   rax
    10a2:	54                   	push   rsp
    10a3:	45 31 c0             	xor    r8d,r8d
    10a6:	31 c9                	xor    ecx,ecx
    10a8:	48 8d 3d b3 01 00 00 	lea    rdi,[rip+0x1b3]        # 1262 <main>
    10af:	ff 15 1b 2f 00 00    	call   QWORD PTR [rip+0x2f1b]        # 3fd0 <__libc_start_main@GLIBC_2.34>
    10b5:	f4                   	hlt    
    10b6:	66 2e 0f 1f 84 00 00 	cs nop WORD PTR [rax+rax*1+0x0]
    10bd:	00 00 00 

00000000000010c0 <deregister_tm_clones>:
    10c0:	48 8d 3d 49 2f 00 00 	lea    rdi,[rip+0x2f49]        # 4010 <stdout@GLIBC_2.2.5>
    10c7:	48 8d 05 42 2f 00 00 	lea    rax,[rip+0x2f42]        # 4010 <stdout@GLIBC_2.2.5>
    10ce:	48 39 f8             	cmp    rax,rdi
    10d1:	74 15                	je     10e8 <deregister_tm_clones+0x28>
    10d3:	48 8b 05 fe 2e 00 00 	mov    rax,QWORD PTR [rip+0x2efe]        # 3fd8 <_ITM_deregisterTMCloneTable@Base>
    10da:	48 85 c0             	test   rax,rax
    10dd:	74 09                	je     10e8 <deregister_tm_clones+0x28>
    10df:	ff e0                	jmp    rax
    10e1:	0f 1f 80 00 00 00 00 	nop    DWORD PTR [rax+0x0]
    10e8:	c3                   	ret    
    10e9:	0f 1f 80 00 00 00 00 	nop    DWORD PTR [rax+0x0]

00000000000010f0 <register_tm_clones>:
    10f0:	48 8d 3d 19 2f 00 00 	lea    rdi,[rip+0x2f19]        # 4010 <stdout@GLIBC_2.2.5>
    10f7:	48 8d 35 12 2f 00 00 	lea    rsi,[rip+0x2f12]        # 4010 <stdout@GLIBC_2.2.5>
    10fe:	48 29 fe             	sub    rsi,rdi
    1101:	48 89 f0             	mov    rax,rsi
    1104:	48 c1 ee 3f          	shr    rsi,0x3f
    1108:	48 c1 f8 03          	sar    rax,0x3
    110c:	48 01 c6             	add    rsi,rax
    110f:	48 d1 fe             	sar    rsi,1
    1112:	74 14                	je     1128 <register_tm_clones+0x38>
    1114:	48 8b 05 d5 2e 00 00 	mov    rax,QWORD PTR [rip+0x2ed5]        # 3ff0 <_ITM_registerTMCloneTable@Base>
    111b:	48 85 c0             	test   rax,rax
    111e:	74 08                	je     1128 <register_tm_clones+0x38>
    1120:	ff e0                	jmp    rax
    1122:	66 0f 1f 44 00 00    	nop    WORD PTR [rax+rax*1+0x0]
    1128:	c3                   	ret    
    1129:	0f 1f 80 00 00 00 00 	nop    DWORD PTR [rax+0x0]

0000000000001130 <__do_global_dtors_aux>:
    1130:	f3 0f 1e fa          	endbr64 
    1134:	80 3d dd 2e 00 00 00 	cmp    BYTE PTR [rip+0x2edd],0x0        # 4018 <completed.0>
    113b:	75 2b                	jne    1168 <__do_global_dtors_aux+0x38>
    113d:	55                   	push   rbp
    113e:	48 83 3d b2 2e 00 00 	cmp    QWORD PTR [rip+0x2eb2],0x0        # 3ff8 <__cxa_finalize@GLIBC_2.2.5>
    1145:	00 
    1146:	48 89 e5             	mov    rbp,rsp
    1149:	74 0c                	je     1157 <__do_global_dtors_aux+0x27>
    114b:	48 8b 3d b6 2e 00 00 	mov    rdi,QWORD PTR [rip+0x2eb6]        # 4008 <__dso_handle>
    1152:	e8 09 ff ff ff       	call   1060 <__cxa_finalize@plt>
    1157:	e8 64 ff ff ff       	call   10c0 <deregister_tm_clones>
    115c:	c6 05 b5 2e 00 00 01 	mov    BYTE PTR [rip+0x2eb5],0x1        # 4018 <completed.0>
    1163:	5d                   	pop    rbp
    1164:	c3                   	ret    
    1165:	0f 1f 00             	nop    DWORD PTR [rax]
    1168:	c3                   	ret    
    1169:	0f 1f 80 00 00 00 00 	nop    DWORD PTR [rax+0x0]

0000000000001170 <frame_dummy>:
    1170:	f3 0f 1e fa          	endbr64 
    1174:	e9 77 ff ff ff       	jmp    10f0 <register_tm_clones>

0000000000001179 <solver>:
    1179:	f3 0f 1e fa          	endbr64 
    117d:	55                   	push   rbp
    117e:	48 89 e5             	mov    rbp,rsp
    1181:	48 83 ec 20          	sub    rsp,0x20
    1185:	48 89 7d e8          	mov    QWORD PTR [rbp-0x18],rdi
    1189:	64 48 8b 04 25 28 00 	mov    rax,QWORD PTR fs:0x28
    1190:	00 00 
    1192:	48 89 45 f8          	mov    QWORD PTR [rbp-0x8],rax
    1196:	31 c0                	xor    eax,eax
    1198:	48 c7 45 f0 00 00 00 	mov    QWORD PTR [rbp-0x10],0x0
    119f:	00 
    11a0:	48 8d 45 f0          	lea    rax,[rbp-0x10]
    11a4:	48 83 c0 08          	add    rax,0x8
    11a8:	48 8b 10             	mov    rdx,QWORD PTR [rax]
    11ab:	48 8d 45 f0          	lea    rax,[rbp-0x10]
    11af:	48 83 c0 08          	add    rax,0x8
    11b3:	4c 8b 45 e8          	mov    r8,QWORD PTR [rbp-0x18]
    11b7:	48 89 d1             	mov    rcx,rdx
    11ba:	48 89 c2             	mov    rdx,rax
    11bd:	be 08 00 00 00       	mov    esi,0x8
    11c2:	48 8d 05 3f 0e 00 00 	lea    rax,[rip+0xe3f]        # 2008 <_IO_stdin_used+0x8>
    11c9:	48 89 c7             	mov    rdi,rax
    11cc:	b8 00 00 00 00       	mov    eax,0x0
    11d1:	41 ff d0             	call   r8
    11d4:	48 8d 45 f0          	lea    rax,[rbp-0x10]
    11d8:	48 83 c0 10          	add    rax,0x10
    11dc:	48 8b 10             	mov    rdx,QWORD PTR [rax]
    11df:	48 8d 45 f0          	lea    rax,[rbp-0x10]
    11e3:	48 83 c0 10          	add    rax,0x10
    11e7:	4c 8b 45 e8          	mov    r8,QWORD PTR [rbp-0x18]
    11eb:	48 89 d1             	mov    rcx,rdx
    11ee:	48 89 c2             	mov    rdx,rax
    11f1:	be 10 00 00 00       	mov    esi,0x10
    11f6:	48 8d 05 33 0e 00 00 	lea    rax,[rip+0xe33]        # 2030 <_IO_stdin_used+0x30>
    11fd:	48 89 c7             	mov    rdi,rax
    1200:	b8 00 00 00 00       	mov    eax,0x0
    1205:	41 ff d0             	call   r8
    1208:	48 8d 45 f0          	lea    rax,[rbp-0x10]
    120c:	48 83 c0 18          	add    rax,0x18
    1210:	48 8b 10             	mov    rdx,QWORD PTR [rax]
    1213:	48 8d 45 f0          	lea    rax,[rbp-0x10]
    1217:	48 83 c0 18          	add    rax,0x18
    121b:	4c 8b 45 e8          	mov    r8,QWORD PTR [rbp-0x18]
    121f:	48 89 d1             	mov    rcx,rdx
    1222:	48 89 c2             	mov    rdx,rax
    1225:	be 18 00 00 00       	mov    esi,0x18
    122a:	48 8d 05 1f 0e 00 00 	lea    rax,[rip+0xe1f]        # 2050 <_IO_stdin_used+0x50>
    1231:	48 89 c7             	mov    rdi,rax
    1234:	b8 00 00 00 00       	mov    eax,0x0
    1239:	41 ff d0             	call   r8
    123c:	48 8b 05 cd 2d 00 00 	mov    rax,QWORD PTR [rip+0x2dcd]        # 4010 <stdout@GLIBC_2.2.5>
    1243:	48 89 c7             	mov    rdi,rax
    1246:	e8 35 fe ff ff       	call   1080 <fflush@plt>
    124b:	90                   	nop
    124c:	48 8b 45 f8          	mov    rax,QWORD PTR [rbp-0x8]
    1250:	64 48 2b 04 25 28 00 	sub    rax,QWORD PTR fs:0x28
    1257:	00 00 
    1259:	74 05                	je     1260 <solver+0xe7>
    125b:	e8 10 fe ff ff       	call   1070 <__stack_chk_fail@plt>
    1260:	c9                   	leave  
    1261:	c3                   	ret    

0000000000001262 <main>:
    1262:	f3 0f 1e fa          	endbr64 
    1266:	55                   	push   rbp
    1267:	48 89 e5             	mov    rbp,rsp
    126a:	48 83 ec 20          	sub    rsp,0x20
    126e:	64 48 8b 04 25 28 00 	mov    rax,QWORD PTR fs:0x28
    1275:	00 00 
    1277:	48 89 45 f8          	mov    QWORD PTR [rbp-0x8],rax
    127b:	31 c0                	xor    eax,eax
    127d:	48 b8 2a 2a 20 6d 61 	movabs rax,0x206e69616d202a2a
    1284:	69 6e 20 
    1287:	48 ba 3d 20 25 70 0a 	movabs rdx,0xa7025203d
    128e:	00 00 00 
    1291:	48 89 45 e0          	mov    QWORD PTR [rbp-0x20],rax
    1295:	48 89 55 e8          	mov    QWORD PTR [rbp-0x18],rdx
    1299:	48 8d 45 e0          	lea    rax,[rbp-0x20]
    129d:	48 8d 15 be ff ff ff 	lea    rdx,[rip+0xffffffffffffffbe]        # 1262 <main>
    12a4:	48 89 d6             	mov    rsi,rdx
    12a7:	48 89 c7             	mov    rdi,rax
    12aa:	b8 00 00 00 00       	mov    eax,0x0
    12af:	e8 9c fd ff ff       	call   1050 <printf@plt>
    12b4:	48 8b 05 25 2d 00 00 	mov    rax,QWORD PTR [rip+0x2d25]        # 3fe0 <printf@GLIBC_2.2.5>
    12bb:	48 89 c7             	mov    rdi,rax
    12be:	e8 b6 fe ff ff       	call   1179 <solver>
    12c3:	b8 00 00 00 00       	mov    eax,0x0
    12c8:	48 8b 55 f8          	mov    rdx,QWORD PTR [rbp-0x8]
    12cc:	64 48 2b 14 25 28 00 	sub    rdx,QWORD PTR fs:0x28
    12d3:	00 00 
    12d5:	74 05                	je     12dc <main+0x7a>
    12d7:	e8 94 fd ff ff       	call   1070 <__stack_chk_fail@plt>
    12dc:	c9                   	leave  
    12dd:	c3                   	ret    

Disassembly of section .fini:

00000000000012e0 <_fini>:
    12e0:	f3 0f 1e fa          	endbr64 
    12e4:	48 83 ec 08          	sub    rsp,0x8
    12e8:	48 83 c4 08          	add    rsp,0x8
    12ec:	c3                   	ret    
